target datalayout = "e-m:e-p270:32:32-p271:32:32-p272:64:64-i64:64-i128:128-f80:128-n8:16:32:64-S128"
target triple = "x86_64-pc-linux-gnu"

%struct._zval_struct = type { %union._zend_value, %union.anon, %union.anon.2 }
%union._zend_value = type { i64 }
%union.anon = type { i32 }
%union.anon.2 = type { i32 }
%struct._php_random_algo = type { i64, ptr, ptr, ptr, ptr }
%struct._zend_random_globals = type { ptr, i8, ptr, i8, i32 }
%struct._php_random_result = type { i64, i64 }
%struct._zend_execute_data = type { ptr, ptr, ptr, ptr, %struct._zval_struct, ptr, ptr, ptr, ptr }

@random_globals = global %struct._zend_random_globals zeroinitializer, align 8
@php_random_algo_combinedlcg = external constant %struct._php_random_algo, align 8

; Function Attrs: nounwind uwtable
define double @php_combined_lcg() #0 {
  %1 = alloca ptr, align 8
  %2 = alloca %struct._php_random_result, align 8
  %3 = load ptr, ptr @random_globals, align 8
  store ptr %3, ptr %1, align 8
  %4 = load i8, ptr getelementptr inbounds (%struct._zend_random_globals, ptr @random_globals, i32 0, i32 1), align 8
  %5 = trunc i8 %4 to i1
  br i1 %5, label %8, label %6

6:                                                ; preds = %0
  %7 = load ptr, ptr %1, align 8
  call void @php_random_combinedlcg_seed_default(ptr noundef %7)
  store i8 1, ptr getelementptr inbounds (%struct._zend_random_globals, ptr @random_globals, i32 0, i32 1), align 8
  br label %8

8:                                                ; preds = %6, %0
  %9 = load ptr, ptr getelementptr inbounds (%struct._php_random_algo, ptr @php_random_algo_combinedlcg, i32 0, i32 1), align 8
  %10 = load ptr, ptr %1, align 8
  %11 = call { i64, i64 } %9(ptr noundef %10)
  %12 = getelementptr inbounds { i64, i64 }, ptr %2, i32 0, i32 0
  %13 = extractvalue { i64, i64 } %11, 0
  store i64 %13, ptr %12, align 8
  %14 = getelementptr inbounds { i64, i64 }, ptr %2, i32 0, i32 1
  %15 = extractvalue { i64, i64 } %11, 1
  store i64 %15, ptr %14, align 8
  %16 = getelementptr inbounds %struct._php_random_result, ptr %2, i32 0, i32 0
  %17 = load i64, ptr %16, align 8
  %18 = uitofp i64 %17 to double
  %19 = fmul double %18, 0x3E00000007510C0E
  ret double %19
}

; Function Attrs: nounwind uwtable
define hidden void @zif_lcg_value(ptr noundef %0, ptr noundef %1) #0 {
  %3 = alloca ptr, align 8
  %4 = alloca ptr, align 8
  %5 = alloca ptr, align 8
  store ptr %0, ptr %3, align 8
  store ptr %1, ptr %4, align 8
  br label %6

6:                                                ; preds = %2
  %7 = load ptr, ptr %3, align 8
  %8 = getelementptr inbounds %struct._zend_execute_data, ptr %7, i32 0, i32 4
  %9 = getelementptr inbounds %struct._zval_struct, ptr %8, i32 0, i32 2
  %10 = load i32, ptr %9, align 4
  %11 = icmp ne i32 %10, 0
  %12 = xor i1 %11, true
  %13 = xor i1 %12, true
  %14 = zext i1 %13 to i32
  %15 = sext i32 %14 to i64
  %16 = icmp ne i64 %15, 0
  br i1 %16, label %17, label %18

17:                                               ; preds = %6
  call void @zend_wrong_parameters_none_error()
  br label %29

18:                                               ; preds = %6
  br label %19

19:                                               ; preds = %18
  br label %20

20:                                               ; preds = %19
  br label %21

21:                                               ; preds = %20
  %22 = load ptr, ptr %4, align 8
  store ptr %22, ptr %5, align 8
  %23 = call double @php_combined_lcg()
  %24 = load ptr, ptr %5, align 8
  %25 = getelementptr inbounds %struct._zval_struct, ptr %24, i32 0, i32 0
  store double %23, ptr %25, align 8
  %26 = load ptr, ptr %5, align 8
  %27 = getelementptr inbounds %struct._zval_struct, ptr %26, i32 0, i32 1
  store i32 5, ptr %27, align 8
  br label %28

28:                                               ; preds = %21
  br label %29

29:                                               ; preds = %28, %17
  ret void
}