; Function Attrs: nounwind uwtable
define hidden void @zif_lcg_value(ptr nocapture noundef readonly %0, ptr nocapture noundef writeonly %1) #0 {
  %3 = getelementptr inbounds i8, ptr %0, i64 44
  %4 = load i32, ptr %3, align 4
  %.not = icmp eq i32 %4, 0
  br i1 %.not, label %6, label %5

5:                                                ; preds = %2
  tail call void @zend_wrong_parameters_none_error() #13
  br label %17

6:                                                ; preds = %2
  %7 = load ptr, ptr @random_globals, align 8
  %8 = load i8, ptr getelementptr inbounds (%struct._zend_random_globals, ptr @random_globals, i64 0, i32 1), align 8
  %9 = and i8 %8, 1
  %.not.i = icmp eq i8 %9, 0
  br i1 %.not.i, label %10, label %php_combined_lcg.exit

10:                                               ; preds = %6
  tail call void @php_random_combinedlcg_seed_default(ptr noundef %7) #13
  store i8 1, ptr getelementptr inbounds (%struct._zend_random_globals, ptr @random_globals, i64 0, i32 1), align 8
  br label %php_combined_lcg.exit

php_combined_lcg.exit:                            ; preds = %6, %10
  %11 = load ptr, ptr getelementptr inbounds (%struct._php_random_algo, ptr @php_random_algo_combinedlcg, i64 0, i32 1), align 8
  %12 = tail call { i64, i64 } %11(ptr noundef %7) #13
  %13 = extractvalue { i64, i64 } %12, 0
  %14 = uitofp i64 %13 to double
  %15 = fmul double %14, 0x3E00000007510C0E
  store double %15, ptr %1, align 8
  %16 = getelementptr inbounds i8, ptr %1, i64 8
  store i32 5, ptr %16, align 8
  br label %17

17:                                               ; preds = %php_combined_lcg.exit, %5
  ret void
}